; Function Attrs: mustprogress uwtable
define internal noundef zeroext i1 @"_ZNSt17_Function_handlerIFbvEZN6google8protobuf2io7Printer9ValueImplILb1EE18ToStringOrCallbackIZNKS2_8compiler4rust14SingularScalar9InMsgImplENS9_7ContextINS2_15FieldDescriptorEEEE3$_2vEESt7variantIJNSt7__cxx1112basic_stringIcSt11char_traitsIcESaIcEEESt8functionIS0_EEEOT_NS6_5Rank2EEUlvE_E9_M_invokeERKSt9_Any_data"(ptr noundef nonnull align 8 captures(none) dereferenceable(16) %__functor) #3 align 2 personality ptr @__gxx_personality_v0 {
entry:
  %0 = getelementptr inbounds nuw i8, ptr %__functor, i64 8
  %1 = load i8, ptr %0, align 8
  %tobool.i.i.i = trunc i8 %1 to i1
  br i1 %tobool.i.i.i, label %"_ZSt10__invoke_rIbRZN6google8protobuf2io7Printer9ValueImplILb1EE18ToStringOrCallbackIZNKS1_8compiler4rust14SingularScalar9InMsgImplENS8_7ContextINS1_15FieldDescriptorEEEE3$_2vEESt7variantIJNSt7__cxx1112basic_stringIcSt11char_traitsIcESaIcEEESt8functionIFbvEEEEOT_NS5_5Rank2EEUlvE_JEENSt9enable_ifIX16is_invocable_r_vISP_T0_DpT1_EESP_E4typeEOSV_DpOSW_.exit", label %if.end.i.i.i

if.end.i.i.i:                                     ; preds = %entry
  store i8 1, ptr %0, align 8
  %2 = load ptr, ptr %__functor, align 8
  %desc_.i.i.i.i.i = getelementptr inbounds nuw i8, ptr %2, i64 8
  %3 = load ptr, ptr %desc_.i.i.i.i.i, align 8
  %call2.i.i.i.i = tail call noundef zeroext i1 @_ZNK6google8protobuf15FieldDescriptor12has_presenceEv(ptr noundef nonnull align 8 dereferenceable(88) %3)
  %4 = load ptr, ptr %__functor, align 8
  %printer_.i.i.i.i.i = getelementptr inbounds nuw i8, ptr %4, i64 24
  %5 = load ptr, ptr %printer_.i.i.i.i.i, align 8
  br i1 %call2.i.i.i.i, label %if.then.i.i.i.i, label %if.else.i.i.i.i

if.then.i.i.i.i:                                  ; preds = %if.end.i.i.i
  tail call void @_ZN6google8protobuf2io7Printer4EmitEN4absl12lts_202308024SpanIKNS2_3SubEEESt17basic_string_viewIcSt11char_traitsIcEENS2_14SourceLocationE(ptr noundef nonnull align 8 dereferenceable(256) %5, ptr null, i64 0, i64 906, ptr nonnull @.str.23)
  br label %"_ZZNK6google8protobuf8compiler4rust14SingularScalar9InMsgImplENS2_7ContextINS0_15FieldDescriptorEEEENK3$_2clEv.exit.i.i.i"

if.else.i.i.i.i:                                  ; preds = %if.end.i.i.i
  tail call void @_ZN6google8protobuf2io7Printer4EmitEN4absl12lts_202308024SpanIKNS2_3SubEEESt17basic_string_viewIcSt11char_traitsIcEENS2_14SourceLocationE(ptr noundef nonnull align 8 dereferenceable(256) %5, ptr null, i64 0, i64 1193, ptr nonnull @.str.24)
  br label %"_ZZNK6google8protobuf8compiler4rust14SingularScalar9InMsgImplENS2_7ContextINS0_15FieldDescriptorEEEENK3$_2clEv.exit.i.i.i"

"_ZZNK6google8protobuf8compiler4rust14SingularScalar9InMsgImplENS2_7ContextINS0_15FieldDescriptorEEEENK3$_2clEv.exit.i.i.i": ; preds = %if.else.i.i.i.i, %if.then.i.i.i.i
  store i8 0, ptr %0, align 8
  br label %"_ZSt10__invoke_rIbRZN6google8protobuf2io7Printer9ValueImplILb1EE18ToStringOrCallbackIZNKS1_8compiler4rust14SingularScalar9InMsgImplENS8_7ContextINS1_15FieldDescriptorEEEE3$_2vEESt7variantIJNSt7__cxx1112basic_stringIcSt11char_traitsIcESaIcEEESt8functionIFbvEEEEOT_NS5_5Rank2EEUlvE_JEENSt9enable_ifIX16is_invocable_r_vISP_T0_DpT1_EESP_E4typeEOSV_DpOSW_.exit"

"_ZSt10__invoke_rIbRZN6google8protobuf2io7Printer9ValueImplILb1EE18ToStringOrCallbackIZNKS1_8compiler4rust14SingularScalar9InMsgImplENS8_7ContextINS1_15FieldDescriptorEEEE3$_2vEESt7variantIJNSt7__cxx1112basic_stringIcSt11char_traitsIcESaIcEEESt8functionIFbvEEEEOT_NS5_5Rank2EEUlvE_JEENSt9enable_ifIX16is_invocable_r_vISP_T0_DpT1_EESP_E4typeEOSV_DpOSW_.exit": ; preds = %entry, %"_ZZNK6google8protobuf8compiler4rust14SingularScalar9InMsgImplENS2_7ContextINS0_15FieldDescriptorEEEENK3$_2clEv.exit.i.i.i"
  %retval.0.i.i.i = xor i1 %tobool.i.i.i, true
  ret i1 %retval.0.i.i.i
}